; Function Attrs: nounwind uwtable
define internal fastcc ptr @deque_extend_impl(ptr noundef %0, ptr noundef %1) unnamed_addr #0 {
  %3 = getelementptr inbounds nuw i8, ptr %0, i64 64
  %4 = load i64, ptr %3, align 8, !tbaa !45
  %5 = icmp eq ptr %0, %1
  br i1 %5, label %6, label %16

6:                                                ; preds = %2
  %7 = tail call ptr @PySequence_List(ptr noundef %1) #9
  %8 = icmp eq ptr %7, null
  br i1 %8, label %Py_DECREF.exit36, label %9

9:                                                ; preds = %6
  %10 = tail call fastcc ptr @deque_extend_impl(ptr noundef nonnull %0, ptr noundef nonnull %7)
  %11 = load i32, ptr %7, align 8, !tbaa !20
  %.not.i35 = icmp sgt i32 %11, -1
  br i1 %.not.i35, label %12, label %Py_DECREF.exit36

12:                                               ; preds = %9
  %13 = add nsw i32 %11, -1
  store i32 %13, ptr %7, align 8, !tbaa !20
  %14 = icmp eq i32 %13, 0
  br i1 %14, label %15, label %Py_DECREF.exit36

15:                                               ; preds = %12
  tail call void @_Py_Dealloc(ptr noundef nonnull %7) #9
  br label %Py_DECREF.exit36

16:                                               ; preds = %2
  %17 = tail call ptr @PyObject_GetIter(ptr noundef %1) #9
  %18 = icmp eq ptr %17, null
  br i1 %18, label %Py_DECREF.exit36, label %19

19:                                               ; preds = %16
  %20 = icmp eq i64 %4, 0
  br i1 %20, label %21, label %23

21:                                               ; preds = %19
  %22 = tail call fastcc ptr @consume_iterator(ptr noundef %17)
  br label %Py_DECREF.exit36

23:                                               ; preds = %19
  %24 = getelementptr i8, ptr %0, i64 16
  %.val = load i64, ptr %24, align 8, !tbaa !52
  %25 = icmp eq i64 %.val, 0
  br i1 %25, label %26, label %29

26:                                               ; preds = %23
  %27 = getelementptr inbounds nuw i8, ptr %0, i64 40
  store i64 1, ptr %27, align 8, !tbaa !46
  %28 = getelementptr inbounds nuw i8, ptr %0, i64 48
  store i64 0, ptr %28, align 8, !tbaa !50
  br label %29

29:                                               ; preds = %26, %23
  %30 = getelementptr i8, ptr %17, i64 8
  %.val39 = load ptr, ptr %30, align 8, !tbaa !22
  %31 = getelementptr inbounds nuw i8, ptr %.val39, i64 224
  %32 = load ptr, ptr %31, align 8, !tbaa !77
  br label %33

33:                                               ; preds = %35, %29
  %34 = tail call ptr %32(ptr noundef nonnull %17) #9
  %.not = icmp eq ptr %34, null
  br i1 %.not, label %49, label %35

35:                                               ; preds = %33
  %36 = tail call fastcc i32 @deque_append_lock_held(ptr noundef %0, ptr noundef nonnull %34, i64 noundef %4)
  %37 = icmp eq i32 %36, -1
  br i1 %37, label %38, label %33, !llvm.loop !78

38:                                               ; preds = %35
  %39 = load i32, ptr %34, align 8, !tbaa !20
  %.not.i33 = icmp sgt i32 %39, -1
  br i1 %.not.i33, label %40, label %Py_DECREF.exit34

40:                                               ; preds = %38
  %41 = add nsw i32 %39, -1
  store i32 %41, ptr %34, align 8, !tbaa !20
  %42 = icmp eq i32 %41, 0
  br i1 %42, label %43, label %Py_DECREF.exit34

43:                                               ; preds = %40
  tail call void @_Py_Dealloc(ptr noundef nonnull %34) #9
  br label %Py_DECREF.exit34

Py_DECREF.exit34:                                 ; preds = %38, %40, %43
  %44 = load i32, ptr %17, align 8, !tbaa !20
  %.not.i = icmp sgt i32 %44, -1
  br i1 %.not.i, label %45, label %Py_DECREF.exit36

45:                                               ; preds = %Py_DECREF.exit34
  %46 = add nsw i32 %44, -1
  store i32 %46, ptr %17, align 8, !tbaa !20
  %47 = icmp eq i32 %46, 0
  br i1 %47, label %48, label %Py_DECREF.exit36

48:                                               ; preds = %45
  tail call void @_Py_Dealloc(ptr noundef nonnull %17) #9
  br label %Py_DECREF.exit36

49:                                               ; preds = %33
  %50 = tail call ptr @PyErr_Occurred() #9
  %.not.i40 = icmp eq ptr %50, null
  br i1 %.not.i40, label %60, label %51

51:                                               ; preds = %49
  %52 = load ptr, ptr @PyExc_StopIteration, align 8, !tbaa !21
  %53 = tail call i32 @PyErr_ExceptionMatches(ptr noundef %52) #9
  %.not3.i = icmp eq i32 %53, 0
  br i1 %.not3.i, label %55, label %54

54:                                               ; preds = %51
  tail call void @PyErr_Clear() #9
  br label %60

55:                                               ; preds = %51
  %56 = load i32, ptr %17, align 8, !tbaa !20
  %.not.i4.i = icmp sgt i32 %56, -1
  br i1 %.not.i4.i, label %57, label %Py_DECREF.exit36

57:                                               ; preds = %55
  %58 = add nsw i32 %56, -1
  store i32 %58, ptr %17, align 8, !tbaa !20
  %59 = icmp eq i32 %58, 0
  br i1 %59, label %Py_DECREF.exit5.sink.split.i, label %Py_DECREF.exit36

60:                                               ; preds = %54, %49
  %61 = load i32, ptr %17, align 8, !tbaa !20
  %.not.i.i = icmp sgt i32 %61, -1
  br i1 %.not.i.i, label %62, label %Py_DECREF.exit36

62:                                               ; preds = %60
  %63 = add nsw i32 %61, -1
  store i32 %63, ptr %17, align 8, !tbaa !20
  %64 = icmp eq i32 %63, 0
  br i1 %64, label %Py_DECREF.exit5.sink.split.i, label %Py_DECREF.exit36

Py_DECREF.exit5.sink.split.i:                     ; preds = %62, %57
  %.0.ph.i = phi ptr [ null, %57 ], [ @_Py_NoneStruct, %62 ]
  tail call void @_Py_Dealloc(ptr noundef nonnull %17) #9
  br label %Py_DECREF.exit36

Py_DECREF.exit36:                                 ; preds = %Py_DECREF.exit5.sink.split.i, %62, %60, %57, %55, %48, %45, %Py_DECREF.exit34, %15, %12, %9, %16, %6, %21
  %.1 = phi ptr [ %22, %21 ], [ null, %6 ], [ null, %16 ], [ %10, %9 ], [ %10, %12 ], [ %10, %15 ], [ null, %Py_DECREF.exit34 ], [ null, %45 ], [ null, %48 ], [ null, %55 ], [ null, %57 ], [ @_Py_NoneStruct, %60 ], [ @_Py_NoneStruct, %62 ], [ %.0.ph.i, %Py_DECREF.exit5.sink.split.i ]
  ret ptr %.1
}